; Function Attrs: nounwind uwtable
define ptr @Abc_NtkSensitivityMiter_rec(ptr noundef %0, ptr noundef captures(none) %1) local_unnamed_addr #0 {
  %3 = getelementptr inbounds nuw i8, ptr %1, i64 64
  %4 = load ptr, ptr %3, align 8, !tbaa !3
  %.not = icmp eq ptr %4, null
  br i1 %.not, label %5, label %common.ret21

common.ret21:                                     ; preds = %2, %5
  %common.ret21.op = phi ptr [ %48, %5 ], [ %4, %2 ]
  ret ptr %common.ret21.op

5:                                                ; preds = %2
  %.val = load ptr, ptr %1, align 8, !tbaa !6
  %6 = getelementptr i8, ptr %1, i64 32
  %.val12 = load ptr, ptr %6, align 8, !tbaa !14
  %7 = getelementptr i8, ptr %.val, i64 32
  %.val.val = load ptr, ptr %7, align 8, !tbaa !15
  %.val12.val = load i32, ptr %.val12, align 4, !tbaa !29
  %8 = getelementptr i8, ptr %.val.val, i64 8
  %.val.val.val = load ptr, ptr %8, align 8, !tbaa !30
  %9 = sext i32 %.val12.val to i64
  %10 = getelementptr inbounds ptr, ptr %.val.val.val, i64 %9
  %11 = load ptr, ptr %10, align 8, !tbaa !32
  %12 = tail call ptr @Abc_NtkSensitivityMiter_rec(ptr noundef %0, ptr noundef %11)
  %.val13 = load ptr, ptr %1, align 8, !tbaa !6
  %.val14 = load ptr, ptr %6, align 8, !tbaa !14
  %13 = getelementptr i8, ptr %.val13, i64 32
  %.val13.val = load ptr, ptr %13, align 8, !tbaa !15
  %14 = getelementptr i8, ptr %.val14, i64 4
  %.val14.val = load i32, ptr %14, align 4, !tbaa !29
  %15 = getelementptr i8, ptr %.val13.val, i64 8
  %.val13.val.val = load ptr, ptr %15, align 8, !tbaa !30
  %16 = sext i32 %.val14.val to i64
  %17 = getelementptr inbounds ptr, ptr %.val13.val.val, i64 %16
  %18 = load ptr, ptr %17, align 8, !tbaa !32
  %19 = tail call ptr @Abc_NtkSensitivityMiter_rec(ptr noundef %0, ptr noundef %18)
  %20 = getelementptr inbounds nuw i8, ptr %0, i64 256
  %21 = load ptr, ptr %20, align 8, !tbaa !33
  %.val.i = load ptr, ptr %1, align 8, !tbaa !6
  %.val2.i = load ptr, ptr %6, align 8, !tbaa !14
  %22 = getelementptr i8, ptr %.val.i, i64 32
  %.val.val.i = load ptr, ptr %22, align 8, !tbaa !15
  %.val2.val.i = load i32, ptr %.val2.i, align 4, !tbaa !29
  %23 = getelementptr i8, ptr %.val.val.i, i64 8
  %.val.val.val.i = load ptr, ptr %23, align 8, !tbaa !30
  %24 = sext i32 %.val2.val.i to i64
  %25 = getelementptr inbounds ptr, ptr %.val.val.val.i, i64 %24
  %26 = load ptr, ptr %25, align 8, !tbaa !32
  %27 = getelementptr inbounds nuw i8, ptr %26, i64 64
  %28 = load ptr, ptr %27, align 8, !tbaa !3
  %29 = getelementptr i8, ptr %1, i64 20
  %.val3.i = load i32, ptr %29, align 4
  %30 = lshr i32 %.val3.i, 10
  %31 = and i32 %30, 1
  %32 = ptrtoint ptr %28 to i64
  %33 = zext nneg i32 %31 to i64
  %34 = xor i64 %33, %32
  %35 = inttoptr i64 %34 to ptr
  %36 = getelementptr i8, ptr %.val2.i, i64 4
  %.val2.val.i18 = load i32, ptr %36, align 4, !tbaa !29
  %37 = sext i32 %.val2.val.i18 to i64
  %38 = getelementptr inbounds ptr, ptr %.val.val.val.i, i64 %37
  %39 = load ptr, ptr %38, align 8, !tbaa !32
  %40 = getelementptr inbounds nuw i8, ptr %39, i64 64
  %41 = load ptr, ptr %40, align 8, !tbaa !3
  %42 = lshr i32 %.val3.i, 11
  %43 = and i32 %42, 1
  %44 = ptrtoint ptr %41 to i64
  %45 = zext nneg i32 %43 to i64
  %46 = xor i64 %44, %45
  %47 = inttoptr i64 %46 to ptr
  %48 = tail call ptr @Abc_AigAnd(ptr noundef %21, ptr noundef %35, ptr noundef %47) #9
  store ptr %48, ptr %3, align 8, !tbaa !3
  br label %common.ret21
}